target datalayout = "e-m:e-p270:32:32-p271:32:32-p272:64:64-i64:64-i128:128-f80:128-n8:16:32:64-S128"
target triple = "x86_64-pc-linux-gnu"

%"struct.boost::detail::platform_duration" = type { %struct.timespec }
%struct.timespec = type { i64, i64 }

; Function Attrs: inlinehint mustprogress nounwind uwtable
define linkonce_odr hidden noundef i64 @_ZN5boost6detail14timespec_to_nsERK8timespec(ptr noundef nonnull align 8 dereferenceable(16) %0) #1 comdat {
  %2 = alloca ptr, align 8
  store ptr %0, ptr %2, align 8, !tbaa !3
  %3 = load ptr, ptr %2, align 8, !tbaa !3
  %4 = getelementptr inbounds nuw %struct.timespec, ptr %3, i32 0, i32 0
  %5 = load i64, ptr %4, align 8, !tbaa !194
  %6 = mul nsw i64 %5, 1000000000
  %7 = load ptr, ptr %2, align 8, !tbaa !3
  %8 = getelementptr inbounds nuw %struct.timespec, ptr %7, i32 0, i32 1
  %9 = load i64, ptr %8, align 8, !tbaa !196
  %10 = add nsw i64 %6, %9
  ret i64 %10
}

; Function Attrs: inlinehint mustprogress nounwind uwtable
define linkonce_odr hidden { i64, i64 } @_ZN5boost6detail14ns_to_timespecERKl(ptr noundef nonnull align 8 dereferenceable(8) %0) #1 comdat {
  %2 = alloca %struct.timespec, align 8
  %3 = alloca ptr, align 8
  %4 = alloca i64, align 8
  store ptr %0, ptr %3, align 8, !tbaa !3
  call void @llvm.lifetime.start.p0(i64 8, ptr %4) #11
  %5 = load ptr, ptr %3, align 8, !tbaa !3
  %6 = load i64, ptr %5, align 8, !tbaa !75
  %7 = sdiv i64 %6, 1000000000
  store i64 %7, ptr %4, align 8, !tbaa !75
  %8 = load i64, ptr %4, align 8, !tbaa !75
  %9 = getelementptr inbounds nuw %struct.timespec, ptr %2, i32 0, i32 0
  store i64 %8, ptr %9, align 8, !tbaa !194
  %10 = load ptr, ptr %3, align 8, !tbaa !3
  %11 = load i64, ptr %10, align 8, !tbaa !75
  %12 = load i64, ptr %4, align 8, !tbaa !75
  %13 = mul nsw i64 %12, 1000000000
  %14 = sub nsw i64 %11, %13
  %15 = getelementptr inbounds nuw %struct.timespec, ptr %2, i32 0, i32 1
  store i64 %14, ptr %15, align 8, !tbaa !196
  call void @llvm.lifetime.end.p0(i64 8, ptr %4) #11
  %16 = load { i64, i64 }, ptr %2, align 8
  ret { i64, i64 } %16
}

; Function Attrs: mustprogress uwtable
define linkonce_odr hidden noundef i64 @_ZNK5boost6detail17platform_duration5getNsEv(ptr noundef nonnull align 8 dereferenceable(16) %0) #5 comdat align 2 {
  %2 = alloca ptr, align 8
  store ptr %0, ptr %2, align 8, !tbaa !3
  %3 = load ptr, ptr %2, align 8
  %4 = getelementptr inbounds nuw %"struct.boost::detail::platform_duration", ptr %3, i32 0, i32 0
  %5 = call noundef i64 @_ZN5boost6detail14timespec_to_nsERK8timespec(ptr noundef nonnull align 8 dereferenceable(16) %4)
  ret i64 %5
}

; Function Attrs: mustprogress uwtable
define linkonce_odr hidden void @_ZN5boost6detail17platform_durationC2ERKl(ptr noundef nonnull align 8 dereferenceable(16) %0, ptr noundef nonnull align 8 dereferenceable(8) %1) unnamed_addr #5 comdat align 2 {
  %3 = alloca ptr, align 8
  %4 = alloca ptr, align 8
  store ptr %0, ptr %3, align 8, !tbaa !3
  store ptr %1, ptr %4, align 8, !tbaa !3
  %5 = load ptr, ptr %3, align 8
  %6 = getelementptr inbounds nuw %"struct.boost::detail::platform_duration", ptr %5, i32 0, i32 0
  %7 = load ptr, ptr %4, align 8, !tbaa !3
  %8 = call { i64, i64 } @_ZN5boost6detail14ns_to_timespecERKl(ptr noundef nonnull align 8 dereferenceable(8) %7)
  %9 = getelementptr inbounds nuw { i64, i64 }, ptr %6, i32 0, i32 0
  %10 = extractvalue { i64, i64 } %8, 0
  store i64 %10, ptr %9, align 8
  %11 = getelementptr inbounds nuw { i64, i64 }, ptr %6, i32 0, i32 1
  %12 = extractvalue { i64, i64 } %8, 1
  store i64 %12, ptr %11, align 8
  ret void
}

; Function Attrs: mustprogress nounwind uwtable
define linkonce_odr hidden noundef nonnull align 8 dereferenceable(16) ptr @_ZNK5boost6detail17platform_duration5getTsEv(ptr noundef nonnull align 8 dereferenceable(16) %0) #2 comdat align 2 {
  %2 = alloca ptr, align 8
  store ptr %0, ptr %2, align 8, !tbaa !3
  %3 = load ptr, ptr %2, align 8
  %4 = getelementptr inbounds nuw %"struct.boost::detail::platform_duration", ptr %3, i32 0, i32 0
  ret ptr %4
}

; Function Attrs: inlinehint mustprogress uwtable
define linkonce_odr hidden noundef zeroext i1 @_ZN5boost6detailgtERKNS0_17platform_durationES3_(ptr noundef nonnull align 8 dereferenceable(16) %0, ptr noundef nonnull align 8 dereferenceable(16) %1) #0 comdat {
  %3 = alloca ptr, align 8
  %4 = alloca ptr, align 8
  store ptr %0, ptr %3, align 8, !tbaa !3
  store ptr %1, ptr %4, align 8, !tbaa !3
  %5 = load ptr, ptr %3, align 8, !tbaa !3
  %6 = call noundef i64 @_ZNK5boost6detail17platform_duration5getNsEv(ptr noundef nonnull align 8 dereferenceable(16) %5)
  %7 = load ptr, ptr %4, align 8, !tbaa !3
  %8 = call noundef i64 @_ZNK5boost6detail17platform_duration5getNsEv(ptr noundef nonnull align 8 dereferenceable(16) %7)
  %9 = icmp sgt i64 %6, %8
  ret i1 %9
}

; Function Attrs: mustprogress uwtable
define linkonce_odr hidden { i64, i64 } @_ZN5boost6detail17platform_duration4zeroEv() #5 comdat align 2 {
  %1 = alloca %"struct.boost::detail::platform_duration", align 8
  %2 = alloca i64, align 8
  call void @llvm.lifetime.start.p0(i64 8, ptr %2) #11
  store i64 0, ptr %2, align 8, !tbaa !75
  call void @_ZN5boost6detail17platform_durationC2ERKl(ptr noundef nonnull align 8 dereferenceable(16) %1, ptr noundef nonnull align 8 dereferenceable(8) %2)
  call void @llvm.lifetime.end.p0(i64 8, ptr %2) #11
  %3 = getelementptr inbounds nuw %"struct.boost::detail::platform_duration", ptr %1, i32 0, i32 0
  %4 = load { i64, i64 }, ptr %3, align 8
  ret { i64, i64 } %4
}

; Function Attrs: mustprogress uwtable
define void @_ZN5boost11this_thread21no_interruption_point6hidden18sleep_for_internalERKNS_6detail17platform_durationE(ptr noundef nonnull align 8 dereferenceable(16) %0) #5 {
  %2 = alloca ptr, align 8
  %3 = alloca %"struct.boost::detail::platform_duration", align 8
  store ptr %0, ptr %2, align 8, !tbaa !3
  %4 = load ptr, ptr %2, align 8, !tbaa !3
  call void @llvm.lifetime.start.p0(i64 16, ptr %3) #11
  %5 = call { i64, i64 } @_ZN5boost6detail17platform_duration4zeroEv()
  %6 = getelementptr inbounds nuw %"struct.boost::detail::platform_duration", ptr %3, i32 0, i32 0
  %7 = getelementptr inbounds nuw { i64, i64 }, ptr %6, i32 0, i32 0
  %8 = extractvalue { i64, i64 } %5, 0
  store i64 %8, ptr %7, align 8
  %9 = getelementptr inbounds nuw { i64, i64 }, ptr %6, i32 0, i32 1
  %10 = extractvalue { i64, i64 } %5, 1
  store i64 %10, ptr %9, align 8
  %11 = call noundef zeroext i1 @_ZN5boost6detailgtERKNS0_17platform_durationES3_(ptr noundef nonnull align 8 dereferenceable(16) %4, ptr noundef nonnull align 8 dereferenceable(16) %3)
  call void @llvm.lifetime.end.p0(i64 16, ptr %3) #11
  br i1 %11, label %12, label %16

12:                                               ; preds = %1
  %13 = load ptr, ptr %2, align 8, !tbaa !3
  %14 = call noundef nonnull align 8 dereferenceable(16) ptr @_ZNK5boost6detail17platform_duration5getTsEv(ptr noundef nonnull align 8 dereferenceable(16) %13)
  %15 = call i32 @nanosleep(ptr noundef %14, ptr noundef null)
  br label %16

16:                                               ; preds = %12, %1
  ret void
}