; Function Attrs: mustprogress uwtable
define void @_ZN5boost11this_thread21no_interruption_point6hidden18sleep_for_internalERKNS_6detail17platform_durationE(ptr noundef nonnull align 8 dereferenceable(16) %0) local_unnamed_addr #9 {
  %2 = load i64, ptr %0, align 8, !tbaa !100
  %3 = mul nsw i64 %2, 1000000000
  %4 = getelementptr inbounds nuw i8, ptr %0, i64 8
  %5 = load i64, ptr %4, align 8, !tbaa !102
  %6 = add nsw i64 %3, %5
  %7 = icmp sgt i64 %6, 0
  br i1 %7, label %8, label %10

8:                                                ; preds = %1
  %9 = tail call i32 @nanosleep(ptr noundef nonnull %0, ptr noundef null)
  br label %10

10:                                               ; preds = %8, %1
  ret void
}